target datalayout = "e-m:e-p270:32:32-p271:32:32-p272:64:64-i64:64-i128:128-f80:128-n8:16:32:64-S128"
target triple = "x86_64-pc-linux-gnu"

%struct.TupleDescData = type { i32, i32, i32, i32, ptr, [0 x %struct.CompactAttribute] }
%struct.CompactAttribute = type { i32, i16, i8, i8, i8, i8, i8, i8, i8 }
%struct.FormData_pg_attribute = type { i32, %struct.nameData, i32, i16, i16, i32, i16, i8, i8, i8, i8, i8, i8, i8, i8, i8, i8, i8, i16, i32 }
%struct.nameData = type { [64 x i8] }

@.str.1 = private unnamed_addr constant [10 x i8] c"tupdesc.c\00", align 1
@.str.2 = private unnamed_addr constant [20 x i8] c"unsupported type %u\00", align 1
@__func__.TupleDescInitBuiltinEntry = private unnamed_addr constant [26 x i8] c"TupleDescInitBuiltinEntry\00", align 1

; Function Attrs: inlinehint nounwind uwtable
define internal ptr @TupleDescAttr(ptr noundef %0, i32 noundef %1) #2 {
  %3 = alloca ptr, align 8
  %4 = alloca i32, align 4
  %5 = alloca ptr, align 8
  store ptr %0, ptr %3, align 8
  store i32 %1, ptr %4, align 4
  call void @llvm.lifetime.start.p0(i64 8, ptr %5) #8
  %6 = load ptr, ptr %3, align 8
  %7 = load ptr, ptr %3, align 8
  %8 = getelementptr inbounds nuw %struct.TupleDescData, ptr %7, i32 0, i32 0
  %9 = load i32, ptr %8, align 8
  %10 = sext i32 %9 to i64
  %11 = mul i64 %10, 16
  %12 = add i64 24, %11
  %13 = getelementptr inbounds nuw i8, ptr %6, i64 %12
  store ptr %13, ptr %5, align 8
  %14 = load ptr, ptr %5, align 8
  %15 = load i32, ptr %4, align 4
  %16 = sext i32 %15 to i64
  %17 = getelementptr inbounds %struct.FormData_pg_attribute, ptr %14, i64 %16
  call void @llvm.lifetime.end.p0(i64 8, ptr %5) #8
  ret ptr %17
}

; Function Attrs: nounwind uwtable
define dso_local void @TupleDescInitBuiltinEntry(ptr noundef %0, i16 noundef signext %1, ptr noundef %2, i32 noundef %3, i32 noundef %4, i32 noundef %5) #0 {
  %7 = alloca ptr, align 8
  %8 = alloca i16, align 2
  %9 = alloca ptr, align 8
  %10 = alloca i32, align 4
  %11 = alloca i32, align 4
  %12 = alloca i32, align 4
  %13 = alloca ptr, align 8
  store ptr %0, ptr %7, align 8
  store i16 %1, ptr %8, align 2
  store ptr %2, ptr %9, align 8
  store i32 %3, ptr %10, align 4
  store i32 %4, ptr %11, align 4
  store i32 %5, ptr %12, align 4
  call void @llvm.lifetime.start.p0(i64 8, ptr %13) #8
  %14 = load ptr, ptr %7, align 8
  %15 = load i16, ptr %8, align 2
  %16 = sext i16 %15 to i32
  %17 = sub i32 %16, 1
  %18 = call ptr @TupleDescAttr(ptr noundef %14, i32 noundef %17)
  store ptr %18, ptr %13, align 8
  %19 = load ptr, ptr %13, align 8
  %20 = getelementptr inbounds nuw %struct.FormData_pg_attribute, ptr %19, i32 0, i32 0
  store i32 0, ptr %20, align 4
  %21 = load ptr, ptr %13, align 8
  %22 = getelementptr inbounds nuw %struct.FormData_pg_attribute, ptr %21, i32 0, i32 1
  %23 = load ptr, ptr %9, align 8
  call void @namestrcpy(ptr noundef %22, ptr noundef %23)
  %24 = load i32, ptr %11, align 4
  %25 = load ptr, ptr %13, align 8
  %26 = getelementptr inbounds nuw %struct.FormData_pg_attribute, ptr %25, i32 0, i32 5
  store i32 %24, ptr %26, align 4
  %27 = load i16, ptr %8, align 2
  %28 = load ptr, ptr %13, align 8
  %29 = getelementptr inbounds nuw %struct.FormData_pg_attribute, ptr %28, i32 0, i32 4
  store i16 %27, ptr %29, align 2
  %30 = load i32, ptr %12, align 4
  %31 = trunc i32 %30 to i16
  %32 = load ptr, ptr %13, align 8
  %33 = getelementptr inbounds nuw %struct.FormData_pg_attribute, ptr %32, i32 0, i32 6
  store i16 %31, ptr %33, align 4
  %34 = load ptr, ptr %13, align 8
  %35 = getelementptr inbounds nuw %struct.FormData_pg_attribute, ptr %34, i32 0, i32 11
  store i8 0, ptr %35, align 2
  %36 = load ptr, ptr %13, align 8
  %37 = getelementptr inbounds nuw %struct.FormData_pg_attribute, ptr %36, i32 0, i32 12
  store i8 0, ptr %37, align 1
  %38 = load ptr, ptr %13, align 8
  %39 = getelementptr inbounds nuw %struct.FormData_pg_attribute, ptr %38, i32 0, i32 13
  store i8 0, ptr %39, align 4
  %40 = load ptr, ptr %13, align 8
  %41 = getelementptr inbounds nuw %struct.FormData_pg_attribute, ptr %40, i32 0, i32 14
  store i8 0, ptr %41, align 1
  %42 = load ptr, ptr %13, align 8
  %43 = getelementptr inbounds nuw %struct.FormData_pg_attribute, ptr %42, i32 0, i32 15
  store i8 0, ptr %43, align 2
  %44 = load ptr, ptr %13, align 8
  %45 = getelementptr inbounds nuw %struct.FormData_pg_attribute, ptr %44, i32 0, i32 16
  store i8 0, ptr %45, align 1
  %46 = load ptr, ptr %13, align 8
  %47 = getelementptr inbounds nuw %struct.FormData_pg_attribute, ptr %46, i32 0, i32 17
  store i8 1, ptr %47, align 4
  %48 = load ptr, ptr %13, align 8
  %49 = getelementptr inbounds nuw %struct.FormData_pg_attribute, ptr %48, i32 0, i32 18
  store i16 0, ptr %49, align 2
  %50 = load i32, ptr %10, align 4
  %51 = load ptr, ptr %13, align 8
  %52 = getelementptr inbounds nuw %struct.FormData_pg_attribute, ptr %51, i32 0, i32 2
  store i32 %50, ptr %52, align 4
  %53 = load i32, ptr %10, align 4
  switch i32 %53, label %119 [
    i32 25, label %54
    i32 1009, label %54
    i32 16, label %67
    i32 23, label %80
    i32 20, label %93
    i32 26, label %106
  ]

54:                                               ; preds = %6, %6
  %55 = load ptr, ptr %13, align 8
  %56 = getelementptr inbounds nuw %struct.FormData_pg_attribute, ptr %55, i32 0, i32 3
  store i16 -1, ptr %56, align 4
  %57 = load ptr, ptr %13, align 8
  %58 = getelementptr inbounds nuw %struct.FormData_pg_attribute, ptr %57, i32 0, i32 7
  store i8 0, ptr %58, align 2
  %59 = load ptr, ptr %13, align 8
  %60 = getelementptr inbounds nuw %struct.FormData_pg_attribute, ptr %59, i32 0, i32 8
  store i8 105, ptr %60, align 1
  %61 = load ptr, ptr %13, align 8
  %62 = getelementptr inbounds nuw %struct.FormData_pg_attribute, ptr %61, i32 0, i32 9
  store i8 120, ptr %62, align 4
  %63 = load ptr, ptr %13, align 8
  %64 = getelementptr inbounds nuw %struct.FormData_pg_attribute, ptr %63, i32 0, i32 10
  store i8 0, ptr %64, align 1
  %65 = load ptr, ptr %13, align 8
  %66 = getelementptr inbounds nuw %struct.FormData_pg_attribute, ptr %65, i32 0, i32 19
  store i32 100, ptr %66, align 4
  br label %131

67:                                               ; preds = %6
  %68 = load ptr, ptr %13, align 8
  %69 = getelementptr inbounds nuw %struct.FormData_pg_attribute, ptr %68, i32 0, i32 3
  store i16 1, ptr %69, align 4
  %70 = load ptr, ptr %13, align 8
  %71 = getelementptr inbounds nuw %struct.FormData_pg_attribute, ptr %70, i32 0, i32 7
  store i8 1, ptr %71, align 2
  %72 = load ptr, ptr %13, align 8
  %73 = getelementptr inbounds nuw %struct.FormData_pg_attribute, ptr %72, i32 0, i32 8
  store i8 99, ptr %73, align 1
  %74 = load ptr, ptr %13, align 8
  %75 = getelementptr inbounds nuw %struct.FormData_pg_attribute, ptr %74, i32 0, i32 9
  store i8 112, ptr %75, align 4
  %76 = load ptr, ptr %13, align 8
  %77 = getelementptr inbounds nuw %struct.FormData_pg_attribute, ptr %76, i32 0, i32 10
  store i8 0, ptr %77, align 1
  %78 = load ptr, ptr %13, align 8
  %79 = getelementptr inbounds nuw %struct.FormData_pg_attribute, ptr %78, i32 0, i32 19
  store i32 0, ptr %79, align 4
  br label %131

80:                                               ; preds = %6
  %81 = load ptr, ptr %13, align 8
  %82 = getelementptr inbounds nuw %struct.FormData_pg_attribute, ptr %81, i32 0, i32 3
  store i16 4, ptr %82, align 4
  %83 = load ptr, ptr %13, align 8
  %84 = getelementptr inbounds nuw %struct.FormData_pg_attribute, ptr %83, i32 0, i32 7
  store i8 1, ptr %84, align 2
  %85 = load ptr, ptr %13, align 8
  %86 = getelementptr inbounds nuw %struct.FormData_pg_attribute, ptr %85, i32 0, i32 8
  store i8 105, ptr %86, align 1
  %87 = load ptr, ptr %13, align 8
  %88 = getelementptr inbounds nuw %struct.FormData_pg_attribute, ptr %87, i32 0, i32 9
  store i8 112, ptr %88, align 4
  %89 = load ptr, ptr %13, align 8
  %90 = getelementptr inbounds nuw %struct.FormData_pg_attribute, ptr %89, i32 0, i32 10
  store i8 0, ptr %90, align 1
  %91 = load ptr, ptr %13, align 8
  %92 = getelementptr inbounds nuw %struct.FormData_pg_attribute, ptr %91, i32 0, i32 19
  store i32 0, ptr %92, align 4
  br label %131

93:                                               ; preds = %6
  %94 = load ptr, ptr %13, align 8
  %95 = getelementptr inbounds nuw %struct.FormData_pg_attribute, ptr %94, i32 0, i32 3
  store i16 8, ptr %95, align 4
  %96 = load ptr, ptr %13, align 8
  %97 = getelementptr inbounds nuw %struct.FormData_pg_attribute, ptr %96, i32 0, i32 7
  store i8 1, ptr %97, align 2
  %98 = load ptr, ptr %13, align 8
  %99 = getelementptr inbounds nuw %struct.FormData_pg_attribute, ptr %98, i32 0, i32 8
  store i8 100, ptr %99, align 1
  %100 = load ptr, ptr %13, align 8
  %101 = getelementptr inbounds nuw %struct.FormData_pg_attribute, ptr %100, i32 0, i32 9
  store i8 112, ptr %101, align 4
  %102 = load ptr, ptr %13, align 8
  %103 = getelementptr inbounds nuw %struct.FormData_pg_attribute, ptr %102, i32 0, i32 10
  store i8 0, ptr %103, align 1
  %104 = load ptr, ptr %13, align 8
  %105 = getelementptr inbounds nuw %struct.FormData_pg_attribute, ptr %104, i32 0, i32 19
  store i32 0, ptr %105, align 4
  br label %131

106:                                              ; preds = %6
  %107 = load ptr, ptr %13, align 8
  %108 = getelementptr inbounds nuw %struct.FormData_pg_attribute, ptr %107, i32 0, i32 3
  store i16 4, ptr %108, align 4
  %109 = load ptr, ptr %13, align 8
  %110 = getelementptr inbounds nuw %struct.FormData_pg_attribute, ptr %109, i32 0, i32 7
  store i8 1, ptr %110, align 2
  %111 = load ptr, ptr %13, align 8
  %112 = getelementptr inbounds nuw %struct.FormData_pg_attribute, ptr %111, i32 0, i32 8
  store i8 105, ptr %112, align 1
  %113 = load ptr, ptr %13, align 8
  %114 = getelementptr inbounds nuw %struct.FormData_pg_attribute, ptr %113, i32 0, i32 9
  store i8 112, ptr %114, align 4
  %115 = load ptr, ptr %13, align 8
  %116 = getelementptr inbounds nuw %struct.FormData_pg_attribute, ptr %115, i32 0, i32 10
  store i8 0, ptr %116, align 1
  %117 = load ptr, ptr %13, align 8
  %118 = getelementptr inbounds nuw %struct.FormData_pg_attribute, ptr %117, i32 0, i32 19
  store i32 0, ptr %118, align 4
  br label %131

119:                                              ; preds = %6
  br label %120

120:                                              ; preds = %119
  br i1 true, label %121, label %123

121:                                              ; preds = %120
  %122 = call zeroext i1 @errstart_cold(i32 noundef 21, ptr noundef null) #9
  br i1 %122, label %125, label %128

123:                                              ; preds = %120
  %124 = call zeroext i1 @errstart(i32 noundef 21, ptr noundef null)
  br i1 %124, label %125, label %128

125:                                              ; preds = %123, %121
  %126 = load i32, ptr %10, align 4
  %127 = call i32 (ptr, ...) @errmsg_internal(ptr noundef @.str.2, i32 noundef %126)
  call void @errfinish(ptr noundef @.str.1, i32 noundef 972, ptr noundef @__func__.TupleDescInitBuiltinEntry)
  br label %128

128:                                              ; preds = %125, %123, %121
  unreachable

129:                                              ; No predecessors!
  br label %130

130:                                              ; preds = %129
  br label %131

131:                                              ; preds = %130, %106, %93, %80, %67, %54
  %132 = load ptr, ptr %7, align 8
  %133 = load i16, ptr %8, align 2
  %134 = sext i16 %133 to i32
  %135 = sub i32 %134, 1
  call void @populate_compact_attribute(ptr noundef %132, i32 noundef %135)
  call void @llvm.lifetime.end.p0(i64 8, ptr %13) #8
  ret void
}