; Function Attrs: nounwind uwtable
define dso_local void @TupleDescInitBuiltinEntry(ptr noundef %0, i16 noundef signext %1, ptr noundef %2, i32 noundef %3, i32 noundef %4, i32 noundef %5) local_unnamed_addr #0 {
  %7 = sext i16 %1 to i32
  %8 = add nsw i32 %7, -1
  %9 = load i32, ptr %0, align 8
  %10 = sext i32 %9 to i64
  %11 = shl nsw i64 %10, 4
  %12 = getelementptr i8, ptr %0, i64 %11
  %13 = getelementptr i8, ptr %12, i64 24
  %14 = sext i32 %8 to i64
  %15 = getelementptr inbounds %struct.FormData_pg_attribute, ptr %13, i64 %14
  store i32 0, ptr %15, align 4
  %16 = getelementptr inbounds nuw i8, ptr %15, i64 4
  tail call void @namestrcpy(ptr noundef nonnull %16, ptr noundef %2) #11
  %17 = getelementptr inbounds nuw i8, ptr %15, i64 76
  store i32 %4, ptr %17, align 4
  %18 = getelementptr inbounds nuw i8, ptr %15, i64 74
  store i16 %1, ptr %18, align 2
  %19 = trunc i32 %5 to i16
  %20 = getelementptr inbounds nuw i8, ptr %15, i64 80
  store i16 %19, ptr %20, align 4
  %21 = getelementptr inbounds nuw i8, ptr %15, i64 86
  %22 = getelementptr inbounds nuw i8, ptr %15, i64 92
  tail call void @llvm.memset.p0.i64(ptr noundef nonnull align 2 dereferenceable(6) %21, i8 0, i64 6, i1 false)
  store i8 1, ptr %22, align 4
  %23 = getelementptr inbounds nuw i8, ptr %15, i64 94
  store i16 0, ptr %23, align 2
  %24 = getelementptr inbounds nuw i8, ptr %15, i64 68
  store i32 %3, ptr %24, align 4
  switch i32 %3, label %28 [
    i32 25, label %31
    i32 1009, label %31
    i32 16, label %25
    i32 23, label %26
    i32 20, label %27
    i32 26, label %26
  ]

25:                                               ; preds = %6
  br label %31

26:                                               ; preds = %6, %6
  br label %31

27:                                               ; preds = %6
  br label %31

28:                                               ; preds = %6
  %29 = tail call zeroext i1 @errstart_cold(i32 noundef 21, ptr noundef null) #10
  tail call void @llvm.assume(i1 %29)
  %30 = tail call i32 (ptr, ...) @errmsg_internal(ptr noundef nonnull @.str.2, i32 noundef %3) #11
  tail call void @errfinish(ptr noundef nonnull @.str.1, i32 noundef 972, ptr noundef nonnull @__func__.TupleDescInitBuiltinEntry) #11
  unreachable

31:                                               ; preds = %6, %6, %27, %26, %25
  %.sink62 = phi i16 [ 8, %27 ], [ 4, %26 ], [ 1, %25 ], [ -1, %6 ], [ -1, %6 ]
  %.sink60 = phi i8 [ 1, %27 ], [ 1, %26 ], [ 1, %25 ], [ 0, %6 ], [ 0, %6 ]
  %.sink58 = phi i8 [ 100, %27 ], [ 105, %26 ], [ 99, %25 ], [ 105, %6 ], [ 105, %6 ]
  %.sink56 = phi i8 [ 112, %27 ], [ 112, %26 ], [ 112, %25 ], [ 120, %6 ], [ 120, %6 ]
  %.sink = phi i32 [ 0, %27 ], [ 0, %26 ], [ 0, %25 ], [ 100, %6 ], [ 100, %6 ]
  %32 = getelementptr inbounds nuw i8, ptr %15, i64 72
  store i16 %.sink62, ptr %32, align 4
  %33 = getelementptr inbounds nuw i8, ptr %15, i64 82
  store i8 %.sink60, ptr %33, align 2
  %34 = getelementptr inbounds nuw i8, ptr %15, i64 83
  store i8 %.sink58, ptr %34, align 1
  %35 = getelementptr inbounds nuw i8, ptr %15, i64 84
  store i8 %.sink56, ptr %35, align 4
  %36 = getelementptr inbounds nuw i8, ptr %15, i64 85
  store i8 0, ptr %36, align 1
  %37 = getelementptr inbounds nuw i8, ptr %15, i64 96
  store i32 %.sink, ptr %37, align 4
  tail call void @populate_compact_attribute(ptr noundef nonnull %0, i32 noundef %8)
  ret void
}